target datalayout = "e-m:e-p270:32:32-p271:32:32-p272:64:64-i64:64-i128:128-f80:128-n8:16:32:64-S128"
target triple = "x86_64-pc-linux-gnu"

%struct.node_record = type { ptr, ptr, i16, i64, i64, ptr, ptr, ptr, i16, ptr, i16, i16, i32, i32, i64, ptr, i16, i16, ptr, ptr, ptr, ptr, ptr, i64, i64, ptr, ptr, ptr, ptr, i32, ptr, ptr, i64, i64, i32, ptr, i64, ptr, i32, i16, ptr, ptr, i32, ptr, i32, i8, ptr, i32, i16, i16, ptr, i16, i64, i16, i64, ptr, i64, i32, i16, i64, i16, ptr, i16, i64, ptr, i64, i16, i32, i16, ptr, ptr, ptr, i16, i32, i16, i16, i32, ptr, i16, i32 }

@node_record_count = external global i32, align 4
@node_record_table_ptr = external global ptr, align 8

; Function Attrs: nounwind uwtable
define dso_local ptr @core_array_to_bitmap(ptr noundef %0) #0 {
  %2 = alloca ptr, align 8
  %3 = alloca ptr, align 8
  %4 = alloca ptr, align 8
  %5 = alloca i32, align 4
  %6 = alloca i32, align 4
  %7 = alloca i32, align 4
  %8 = alloca i32, align 4
  store ptr %0, ptr %3, align 8
  call void @llvm.lifetime.start.p0(i64 8, ptr %4) #3
  store ptr null, ptr %4, align 8
  call void @llvm.lifetime.start.p0(i64 4, ptr %5) #3
  call void @llvm.lifetime.start.p0(i64 4, ptr %6) #3
  call void @llvm.lifetime.start.p0(i64 4, ptr %7) #3
  %9 = load ptr, ptr %3, align 8
  %10 = icmp ne ptr %9, null
  br i1 %10, label %13, label %11

11:                                               ; preds = %1
  %12 = load ptr, ptr %4, align 8
  store ptr %12, ptr %2, align 8
  store i32 1, ptr %8, align 4
  br label %70

13:                                               ; preds = %1
  %14 = load i32, ptr @node_record_count, align 4
  %15 = call i32 @cr_get_coremap_offset(i32 noundef %14)
  %16 = zext i32 %15 to i64
  %17 = call ptr @bit_alloc(i64 noundef %16)
  store ptr %17, ptr %4, align 8
  store i32 0, ptr %5, align 4
  br label %18

18:                                               ; preds = %65, %13
  %19 = load i32, ptr %5, align 4
  %20 = load i32, ptr @node_record_count, align 4
  %21 = icmp slt i32 %19, %20
  br i1 %21, label %22, label %68

22:                                               ; preds = %18
  %23 = load ptr, ptr %3, align 8
  %24 = load i32, ptr %5, align 4
  %25 = sext i32 %24 to i64
  %26 = getelementptr inbounds ptr, ptr %23, i64 %25
  %27 = load ptr, ptr %26, align 8
  %28 = icmp ne ptr %27, null
  br i1 %28, label %30, label %29

29:                                               ; preds = %22
  br label %65

30:                                               ; preds = %22
  %31 = load i32, ptr %5, align 4
  %32 = call i32 @cr_get_coremap_offset(i32 noundef %31)
  store i32 %32, ptr %7, align 4
  store i32 0, ptr %6, align 4
  br label %33

33:                                               ; preds = %61, %30
  %34 = load i32, ptr %6, align 4
  %35 = load ptr, ptr @node_record_table_ptr, align 8
  %36 = load i32, ptr %5, align 4
  %37 = sext i32 %36 to i64
  %38 = getelementptr inbounds ptr, ptr %35, i64 %37
  %39 = load ptr, ptr %38, align 8
  %40 = getelementptr inbounds nuw %struct.node_record, ptr %39, i32 0, i32 74
  %41 = load i16, ptr %40, align 8
  %42 = zext i16 %41 to i32
  %43 = icmp slt i32 %34, %42
  br i1 %43, label %44, label %64

44:                                               ; preds = %33
  %45 = load ptr, ptr %3, align 8
  %46 = load i32, ptr %5, align 4
  %47 = sext i32 %46 to i64
  %48 = getelementptr inbounds ptr, ptr %45, i64 %47
  %49 = load ptr, ptr %48, align 8
  %50 = load i32, ptr %6, align 4
  %51 = sext i32 %50 to i64
  %52 = call i32 @slurm_bit_test(ptr noundef %49, i64 noundef %51)
  %53 = icmp ne i32 %52, 0
  br i1 %53, label %54, label %60

54:                                               ; preds = %44
  %55 = load ptr, ptr %4, align 8
  %56 = load i32, ptr %7, align 4
  %57 = load i32, ptr %6, align 4
  %58 = add nsw i32 %56, %57
  %59 = sext i32 %58 to i64
  call void @bit_set(ptr noundef %55, i64 noundef %59)
  br label %60

60:                                               ; preds = %54, %44
  br label %61

61:                                               ; preds = %60
  %62 = load i32, ptr %6, align 4
  %63 = add nsw i32 %62, 1
  store i32 %63, ptr %6, align 4
  br label %33, !llvm.loop !19

64:                                               ; preds = %33
  br label %65

65:                                               ; preds = %64, %29
  %66 = load i32, ptr %5, align 4
  %67 = add nsw i32 %66, 1
  store i32 %67, ptr %5, align 4
  br label %18, !llvm.loop !20

68:                                               ; preds = %18
  %69 = load ptr, ptr %4, align 8
  store ptr %69, ptr %2, align 8
  store i32 1, ptr %8, align 4
  br label %70

70:                                               ; preds = %68, %11
  call void @llvm.lifetime.end.p0(i64 4, ptr %7) #3
  call void @llvm.lifetime.end.p0(i64 4, ptr %6) #3
  call void @llvm.lifetime.end.p0(i64 4, ptr %5) #3
  call void @llvm.lifetime.end.p0(i64 8, ptr %4) #3
  %71 = load ptr, ptr %2, align 8
  ret ptr %71
}