; Function Attrs: nounwind uwtable
define dso_local ptr @core_array_to_bitmap(ptr noundef readonly captures(address_is_null) %0) local_unnamed_addr #0 {
  %.not = icmp eq ptr %0, null
  br i1 %.not, label %.loopexit22, label %2

2:                                                ; preds = %1
  %3 = load i32, ptr @node_record_count, align 4
  %4 = tail call i32 @cr_get_coremap_offset(i32 noundef %3) #3
  %5 = zext i32 %4 to i64
  %6 = tail call ptr @bit_alloc(i64 noundef %5) #3
  %7 = load i32, ptr @node_record_count, align 4
  %8 = icmp sgt i32 %7, 0
  br i1 %8, label %.lr.ph25, label %.loopexit22

.lr.ph25:                                         ; preds = %2, %.loopexit
  %indvars.iv28 = phi i64 [ %indvars.iv.next29, %.loopexit ], [ 0, %2 ]
  %9 = getelementptr inbounds nuw ptr, ptr %0, i64 %indvars.iv28
  %10 = load ptr, ptr %9, align 8
  %.not20 = icmp eq ptr %10, null
  br i1 %.not20, label %.loopexit, label %11

11:                                               ; preds = %.lr.ph25
  %12 = trunc nuw nsw i64 %indvars.iv28 to i32
  %13 = tail call i32 @cr_get_coremap_offset(i32 noundef %12) #3
  %14 = load ptr, ptr @node_record_table_ptr, align 8
  %15 = getelementptr inbounds nuw ptr, ptr %14, i64 %indvars.iv28
  %16 = load ptr, ptr %15, align 8
  %17 = getelementptr inbounds nuw i8, ptr %16, i64 512
  %18 = load i16, ptr %17, align 8
  %.not26 = icmp eq i16 %18, 0
  br i1 %.not26, label %.loopexit, label %.lr.ph.preheader

.lr.ph.preheader:                                 ; preds = %11
  %19 = sext i32 %13 to i64
  br label %.lr.ph

.lr.ph:                                           ; preds = %.lr.ph.preheader, %24
  %indvars.iv = phi i64 [ 0, %.lr.ph.preheader ], [ %indvars.iv.next, %24 ]
  %20 = load ptr, ptr %9, align 8
  %21 = tail call i32 @slurm_bit_test(ptr noundef %20, i64 noundef %indvars.iv) #3
  %.not21 = icmp eq i32 %21, 0
  br i1 %.not21, label %24, label %22

22:                                               ; preds = %.lr.ph
  %23 = add nsw i64 %indvars.iv, %19
  tail call void @bit_set(ptr noundef %6, i64 noundef %23) #3
  br label %24

24:                                               ; preds = %.lr.ph, %22
  %indvars.iv.next = add nuw nsw i64 %indvars.iv, 1
  %25 = load ptr, ptr @node_record_table_ptr, align 8
  %26 = getelementptr inbounds nuw ptr, ptr %25, i64 %indvars.iv28
  %27 = load ptr, ptr %26, align 8
  %28 = getelementptr inbounds nuw i8, ptr %27, i64 512
  %29 = load i16, ptr %28, align 8
  %30 = zext i16 %29 to i64
  %31 = icmp samesign ult i64 %indvars.iv.next, %30
  br i1 %31, label %.lr.ph, label %.loopexit, !llvm.loop !19

.loopexit:                                        ; preds = %24, %11, %.lr.ph25
  %indvars.iv.next29 = add nuw nsw i64 %indvars.iv28, 1
  %32 = load i32, ptr @node_record_count, align 4
  %33 = sext i32 %32 to i64
  %34 = icmp slt i64 %indvars.iv.next29, %33
  br i1 %34, label %.lr.ph25, label %.loopexit22, !llvm.loop !20

.loopexit22:                                      ; preds = %.loopexit, %2, %1
  %.0 = phi ptr [ null, %1 ], [ %6, %2 ], [ %6, %.loopexit ]
  ret ptr %.0
}